target datalayout = "e-m:e-p270:32:32-p271:32:32-p272:64:64-i64:64-i128:128-f80:128-n8:16:32:64-S128"
target triple = "x86_64-pc-linux-gnu"

%struct.H5FD_log_fapl_t = type { ptr, i64, i64 }
%struct.H5FD_log_t = type { %struct.H5FD_t, i32, i64, i64, i8, [1024 x i8], i64, i64, i8, ptr, ptr, ptr, i64, i64, i64, i64, double, double, double, double, i64, ptr, %struct.H5FD_log_fapl_t }
%struct.H5FD_t = type { i64, ptr, i64, i32, i64, i64, i64, i64, i64, i8 }

@H5FD_init_g = external global i8, align 1
@H5_libterm_g = external global i8, align 1

; Function Attrs: nounwind uwtable
define internal i32 @H5FD__log_query(ptr noundef %0, ptr noundef %1) #0 {
  %3 = alloca ptr, align 8
  %4 = alloca ptr, align 8
  %5 = alloca ptr, align 8
  store ptr %0, ptr %3, align 8, !tbaa !24
  store ptr %1, ptr %4, align 8, !tbaa !71
  call void @llvm.lifetime.start.p0(i64 8, ptr %5) #9
  %6 = load ptr, ptr %3, align 8, !tbaa !24
  store ptr %6, ptr %5, align 8, !tbaa !26
  %7 = load i8, ptr @H5FD_init_g, align 1, !tbaa !7, !range !9, !noundef !10
  %8 = trunc i8 %7 to i1
  br i1 %8, label %13, label %9

9:                                                ; preds = %2
  %10 = load i8, ptr @H5_libterm_g, align 1, !tbaa !7, !range !9, !noundef !10
  %11 = trunc i8 %10 to i1
  %12 = xor i1 %11, true
  br label %13

13:                                               ; preds = %9, %2
  %14 = phi i1 [ true, %2 ], [ %12, %9 ]
  %15 = xor i1 %14, true
  %16 = xor i1 %15, true
  %17 = zext i1 %16 to i32
  %18 = sext i32 %17 to i64
  %19 = call i64 @llvm.expect.i64(i64 %18, i64 1)
  %20 = icmp ne i64 %19, 0
  br i1 %20, label %21, label %60

21:                                               ; preds = %13
  %22 = load ptr, ptr %4, align 8, !tbaa !71
  %23 = icmp ne ptr %22, null
  br i1 %23, label %24, label %59

24:                                               ; preds = %21
  %25 = load ptr, ptr %4, align 8, !tbaa !71
  store i64 0, ptr %25, align 8, !tbaa !11
  %26 = load ptr, ptr %4, align 8, !tbaa !71
  %27 = load i64, ptr %26, align 8, !tbaa !11
  %28 = or i64 %27, 1
  store i64 %28, ptr %26, align 8, !tbaa !11
  %29 = load ptr, ptr %4, align 8, !tbaa !71
  %30 = load i64, ptr %29, align 8, !tbaa !11
  %31 = or i64 %30, 6
  store i64 %31, ptr %29, align 8, !tbaa !11
  %32 = load ptr, ptr %4, align 8, !tbaa !71
  %33 = load i64, ptr %32, align 8, !tbaa !11
  %34 = or i64 %33, 8
  store i64 %34, ptr %32, align 8, !tbaa !11
  %35 = load ptr, ptr %4, align 8, !tbaa !71
  %36 = load i64, ptr %35, align 8, !tbaa !11
  %37 = or i64 %36, 16
  store i64 %37, ptr %35, align 8, !tbaa !11
  %38 = load ptr, ptr %4, align 8, !tbaa !71
  %39 = load i64, ptr %38, align 8, !tbaa !11
  %40 = or i64 %39, 128
  store i64 %40, ptr %38, align 8, !tbaa !11
  %41 = load ptr, ptr %4, align 8, !tbaa !71
  %42 = load i64, ptr %41, align 8, !tbaa !11
  %43 = or i64 %42, 4096
  store i64 %43, ptr %41, align 8, !tbaa !11
  %44 = load ptr, ptr %4, align 8, !tbaa !71
  %45 = load i64, ptr %44, align 8, !tbaa !11
  %46 = or i64 %45, 32768
  store i64 %46, ptr %44, align 8, !tbaa !11
  %47 = load ptr, ptr %5, align 8, !tbaa !26
  %48 = icmp ne ptr %47, null
  br i1 %48, label %49, label %58

49:                                               ; preds = %24
  %50 = load ptr, ptr %5, align 8, !tbaa !26
  %51 = getelementptr inbounds nuw %struct.H5FD_log_t, ptr %50, i32 0, i32 8
  %52 = load i8, ptr %51, align 8, !tbaa !73, !range !9, !noundef !10
  %53 = trunc i8 %52 to i1
  br i1 %53, label %54, label %58

54:                                               ; preds = %49
  %55 = load ptr, ptr %4, align 8, !tbaa !71
  %56 = load i64, ptr %55, align 8, !tbaa !11
  %57 = or i64 %56, 32
  store i64 %57, ptr %55, align 8, !tbaa !11
  br label %58

58:                                               ; preds = %54, %49, %24
  br label %59

59:                                               ; preds = %58, %21
  br label %60

60:                                               ; preds = %59, %13
  call void @llvm.lifetime.end.p0(i64 8, ptr %5) #9
  ret i32 0
}